target datalayout = "e-m:e-p270:32:32-p271:32:32-p272:64:64-i64:64-i128:128-f80:128-n8:16:32:64-S128"
target triple = "x86_64-pc-linux-gnu"

%"class.llvm::MCSubtargetInfo" = type { ptr, %"class.llvm::Triple", %"class.std::__cxx11::basic_string", %"class.std::__cxx11::basic_string", %"class.llvm::ArrayRef", %"class.llvm::ArrayRef.0", ptr, ptr, ptr, ptr, ptr, ptr, ptr, %"class.llvm::FeatureBitset", %"class.std::__cxx11::basic_string" }
%"class.llvm::Triple" = type { %"class.std::__cxx11::basic_string", i32, i32, i32, i32, i32, i32 }
%"class.llvm::ArrayRef" = type { ptr, i64 }
%"class.llvm::ArrayRef.0" = type { ptr, i64 }
%"class.llvm::FeatureBitset" = type { %"struct.std::array" }
%"struct.std::array" = type { [5 x i64] }
%"class.std::__cxx11::basic_string" = type { %"struct.std::__cxx11::basic_string<char>::_Alloc_hider", i64, %union.anon }
%"struct.std::__cxx11::basic_string<char>::_Alloc_hider" = type { ptr }
%union.anon = type { i64, [8 x i8] }
%"class.(anonymous namespace)::DarwinAArch64AsmBackend" = type { %"class.(anonymous namespace)::AArch64AsmBackend", ptr }
%"class.(anonymous namespace)::AArch64AsmBackend" = type { %"class.llvm::MCAsmBackend", %"class.llvm::Triple" }
%"class.llvm::MCAsmBackend" = type { ptr, i32, i32 }
%"class.(anonymous namespace)::ELFAArch64AsmBackend" = type <{ %"class.(anonymous namespace)::AArch64AsmBackend", i8, i8, [6 x i8] }>

; Function Attrs: mustprogress nounwind uwtable
define linkonce_odr hidden void @_ZN4llvm6TripleC2ERKS0_(ptr noundef nonnull align 8 dereferenceable(56) %0, ptr noundef nonnull align 8 dereferenceable(56) %1) unnamed_addr #0 comdat align 2 {
  %3 = alloca ptr, align 8
  %4 = alloca ptr, align 8
  store ptr %0, ptr %3, align 8
  store ptr %1, ptr %4, align 8
  %5 = load ptr, ptr %3, align 8
  %6 = getelementptr inbounds nuw %"class.llvm::Triple", ptr %5, i32 0, i32 0
  %7 = load ptr, ptr %4, align 8
  %8 = getelementptr inbounds nuw %"class.llvm::Triple", ptr %7, i32 0, i32 0
  call void @_ZNSt7__cxx1112basic_stringIcSt11char_traitsIcESaIcEEC1ERKS4_(ptr noundef nonnull align 8 dereferenceable(32) %6, ptr noundef nonnull align 8 dereferenceable(32) %8)
  %9 = getelementptr inbounds nuw %"class.llvm::Triple", ptr %5, i32 0, i32 1
  %10 = load ptr, ptr %4, align 8
  %11 = getelementptr inbounds nuw %"class.llvm::Triple", ptr %10, i32 0, i32 1
  call void @llvm.memcpy.p0.p0.i64(ptr align 8 %9, ptr align 8 %11, i64 24, i1 false)
  ret void
}

; Function Attrs: mustprogress nounwind uwtable
define internal void @_ZN12_GLOBAL__N_117AArch64AsmBackendC2ERKN4llvm6TargetERKNS1_6TripleEb(ptr noundef nonnull align 8 dereferenceable(72) %0, ptr noundef nonnull align 8 dereferenceable(248) %1, ptr noundef nonnull align 8 dereferenceable(56) %2, i1 noundef zeroext %3) unnamed_addr #0 align 2 {
  %5 = alloca ptr, align 8
  %6 = alloca ptr, align 8
  %7 = alloca ptr, align 8
  %8 = alloca i8, align 1
  store ptr %0, ptr %5, align 8
  store ptr %1, ptr %6, align 8
  store ptr %2, ptr %7, align 8
  %9 = zext i1 %3 to i8
  store i8 %9, ptr %8, align 1
  %10 = load ptr, ptr %5, align 8
  %11 = load i8, ptr %8, align 1
  %12 = trunc i8 %11 to i1
  %13 = select i1 %12, i32 1, i32 0
  call void @_ZN4llvm12MCAsmBackendC2ENS_10endiannessEj(ptr noundef nonnull align 8 dereferenceable(16) %10, i32 noundef %13, i32 noundef 1320)
  store ptr getelementptr inbounds inrange(-16, 232) ({ [31 x ptr] }, ptr @_ZTVN12_GLOBAL__N_117AArch64AsmBackendE, i32 0, i32 0, i32 2), ptr %10, align 8
  %14 = getelementptr inbounds nuw %"class.(anonymous namespace)::AArch64AsmBackend", ptr %10, i32 0, i32 1
  %15 = load ptr, ptr %7, align 8
  call void @_ZN4llvm6TripleC2ERKS0_(ptr noundef nonnull align 8 dereferenceable(56) %14, ptr noundef nonnull align 8 dereferenceable(56) %15)
  ret void
}

; Function Attrs: mustprogress nounwind uwtable
define linkonce_odr hidden noundef i32 @_ZNK4llvm6Triple15getObjectFormatEv(ptr noundef nonnull align 8 dereferenceable(56) %0) #0 comdat align 2 {
  %2 = alloca ptr, align 8
  store ptr %0, ptr %2, align 8
  %3 = load ptr, ptr %2, align 8
  %4 = getelementptr inbounds nuw %"class.llvm::Triple", ptr %3, i32 0, i32 6
  %5 = load i32, ptr %4, align 4
  ret i32 %5
}

; Function Attrs: mustprogress nounwind uwtable
define internal void @_ZN12_GLOBAL__N_120ELFAArch64AsmBackendC2ERKN4llvm6TargetERKNS1_6TripleEhbb(ptr noundef nonnull align 8 dereferenceable(74) %0, ptr noundef nonnull align 8 dereferenceable(248) %1, ptr noundef nonnull align 8 dereferenceable(56) %2, i8 noundef zeroext %3, i1 noundef zeroext %4, i1 noundef zeroext %5) unnamed_addr #0 align 2 {
  %7 = alloca ptr, align 8
  %8 = alloca ptr, align 8
  %9 = alloca ptr, align 8
  %10 = alloca i8, align 1
  %11 = alloca i8, align 1
  %12 = alloca i8, align 1
  store ptr %0, ptr %7, align 8
  store ptr %1, ptr %8, align 8
  store ptr %2, ptr %9, align 8
  store i8 %3, ptr %10, align 1
  %13 = zext i1 %4 to i8
  store i8 %13, ptr %11, align 1
  %14 = zext i1 %5 to i8
  store i8 %14, ptr %12, align 1
  %15 = load ptr, ptr %7, align 8
  %16 = load ptr, ptr %8, align 8
  %17 = load ptr, ptr %9, align 8
  %18 = load i8, ptr %11, align 1
  %19 = trunc i8 %18 to i1
  call void @_ZN12_GLOBAL__N_117AArch64AsmBackendC2ERKN4llvm6TargetERKNS1_6TripleEb(ptr noundef nonnull align 8 dereferenceable(72) %15, ptr noundef nonnull align 8 dereferenceable(248) %16, ptr noundef nonnull align 8 dereferenceable(56) %17, i1 noundef zeroext %19)
  store ptr getelementptr inbounds inrange(-16, 232) ({ [31 x ptr] }, ptr @_ZTVN12_GLOBAL__N_120ELFAArch64AsmBackendE, i32 0, i32 0, i32 2), ptr %15, align 8
  %20 = getelementptr inbounds nuw %"class.(anonymous namespace)::ELFAArch64AsmBackend", ptr %15, i32 0, i32 1
  %21 = load i8, ptr %10, align 1
  store i8 %21, ptr %20, align 8
  %22 = getelementptr inbounds nuw %"class.(anonymous namespace)::ELFAArch64AsmBackend", ptr %15, i32 0, i32 2
  %23 = load i8, ptr %12, align 1
  %24 = trunc i8 %23 to i1
  %25 = zext i1 %24 to i8
  store i8 %25, ptr %22, align 1
  ret void
}

; Function Attrs: mustprogress nounwind uwtable
define linkonce_odr hidden noundef i32 @_ZNK4llvm6Triple14getEnvironmentEv(ptr noundef nonnull align 8 dereferenceable(56) %0) #0 comdat align 2 {
  %2 = alloca ptr, align 8
  store ptr %0, ptr %2, align 8
  %3 = load ptr, ptr %2, align 8
  %4 = getelementptr inbounds nuw %"class.llvm::Triple", ptr %3, i32 0, i32 5
  %5 = load i32, ptr %4, align 8
  ret i32 %5
}

; Function Attrs: mustprogress nounwind uwtable
define linkonce_odr hidden noundef zeroext i8 @_ZN4llvm23MCELFObjectTargetWriter8getOSABIENS_6Triple6OSTypeE(i32 noundef %0) #0 comdat align 2 {
  %2 = alloca i8, align 1
  %3 = alloca i32, align 4
  store i32 %0, ptr %3, align 4
  %4 = load i32, ptr %3, align 4
  switch i32 %4, label %9 [
    i32 33, label %5
    i32 23, label %6
    i32 3, label %6
    i32 12, label %7
    i32 11, label %8
  ]

5:                                                ; preds = %1
  store i8 -1, ptr %2, align 1
  br label %10

6:                                                ; preds = %1, %1
  store i8 9, ptr %2, align 1
  br label %10

7:                                                ; preds = %1
  store i8 6, ptr %2, align 1
  br label %10

8:                                                ; preds = %1
  store i8 12, ptr %2, align 1
  br label %10

9:                                                ; preds = %1
  store i8 0, ptr %2, align 1
  br label %10

10:                                               ; preds = %9, %8, %7, %6, %5
  %11 = load i8, ptr %2, align 1
  ret i8 %11
}

; Function Attrs: mustprogress nounwind uwtable
define linkonce_odr hidden noundef i32 @_ZNK4llvm6Triple5getOSEv(ptr noundef nonnull align 8 dereferenceable(56) %0) #0 comdat align 2 {
  %2 = alloca ptr, align 8
  store ptr %0, ptr %2, align 8
  %3 = load ptr, ptr %2, align 8
  %4 = getelementptr inbounds nuw %"class.llvm::Triple", ptr %3, i32 0, i32 4
  %5 = load i32, ptr %4, align 4
  ret i32 %5
}

; Function Attrs: mustprogress nounwind uwtable
define internal void @_ZN12_GLOBAL__N_121COFFAArch64AsmBackendC2ERKN4llvm6TargetERKNS1_6TripleE(ptr noundef nonnull align 8 dereferenceable(72) %0, ptr noundef nonnull align 8 dereferenceable(248) %1, ptr noundef nonnull align 8 dereferenceable(56) %2) unnamed_addr #0 align 2 {
  %4 = alloca ptr, align 8
  %5 = alloca ptr, align 8
  %6 = alloca ptr, align 8
  store ptr %0, ptr %4, align 8
  store ptr %1, ptr %5, align 8
  store ptr %2, ptr %6, align 8
  %7 = load ptr, ptr %4, align 8
  %8 = load ptr, ptr %5, align 8
  %9 = load ptr, ptr %6, align 8
  call void @_ZN12_GLOBAL__N_117AArch64AsmBackendC2ERKN4llvm6TargetERKNS1_6TripleEb(ptr noundef nonnull align 8 dereferenceable(72) %7, ptr noundef nonnull align 8 dereferenceable(248) %8, ptr noundef nonnull align 8 dereferenceable(56) %9, i1 noundef zeroext true)
  store ptr getelementptr inbounds inrange(-16, 232) ({ [31 x ptr] }, ptr @_ZTVN12_GLOBAL__N_121COFFAArch64AsmBackendE, i32 0, i32 0, i32 2), ptr %7, align 8
  ret void
}

; Function Attrs: mustprogress nounwind uwtable
define linkonce_odr hidden noundef zeroext i1 @_ZNK4llvm6Triple17isOSBinFormatCOFFEv(ptr noundef nonnull align 8 dereferenceable(56) %0) #0 comdat align 2 {
  %2 = alloca ptr, align 8
  store ptr %0, ptr %2, align 8
  %3 = load ptr, ptr %2, align 8
  %4 = call noundef i32 @_ZNK4llvm6Triple15getObjectFormatEv(ptr noundef nonnull align 8 dereferenceable(56) %3)
  %5 = icmp eq i32 %4, 1
  ret i1 %5
}

; Function Attrs: mustprogress nounwind uwtable
define internal void @_ZN12_GLOBAL__N_123DarwinAArch64AsmBackendC2ERKN4llvm6TargetERKNS1_6TripleERKNS1_14MCRegisterInfoE(ptr noundef nonnull align 8 dereferenceable(80) %0, ptr noundef nonnull align 8 dereferenceable(248) %1, ptr noundef nonnull align 8 dereferenceable(56) %2, ptr noundef nonnull align 8 dereferenceable(224) %3) unnamed_addr #0 align 2 {
  %5 = alloca ptr, align 8
  %6 = alloca ptr, align 8
  %7 = alloca ptr, align 8
  %8 = alloca ptr, align 8
  store ptr %0, ptr %5, align 8
  store ptr %1, ptr %6, align 8
  store ptr %2, ptr %7, align 8
  store ptr %3, ptr %8, align 8
  %9 = load ptr, ptr %5, align 8
  %10 = load ptr, ptr %6, align 8
  %11 = load ptr, ptr %7, align 8
  call void @_ZN12_GLOBAL__N_117AArch64AsmBackendC2ERKN4llvm6TargetERKNS1_6TripleEb(ptr noundef nonnull align 8 dereferenceable(72) %9, ptr noundef nonnull align 8 dereferenceable(248) %10, ptr noundef nonnull align 8 dereferenceable(56) %11, i1 noundef zeroext true)
  store ptr getelementptr inbounds inrange(-16, 232) ({ [31 x ptr] }, ptr @_ZTVN12_GLOBAL__N_123DarwinAArch64AsmBackendE, i32 0, i32 0, i32 2), ptr %9, align 8
  %12 = getelementptr inbounds nuw %"class.(anonymous namespace)::DarwinAArch64AsmBackend", ptr %9, i32 0, i32 1
  %13 = load ptr, ptr %8, align 8
  store ptr %13, ptr %12, align 8
  ret void
}

; Function Attrs: mustprogress nounwind uwtable
define linkonce_odr hidden noundef zeroext i1 @_ZNK4llvm6Triple18isOSBinFormatMachOEv(ptr noundef nonnull align 8 dereferenceable(56) %0) #0 comdat align 2 {
  %2 = alloca ptr, align 8
  store ptr %0, ptr %2, align 8
  %3 = load ptr, ptr %2, align 8
  %4 = call noundef i32 @_ZNK4llvm6Triple15getObjectFormatEv(ptr noundef nonnull align 8 dereferenceable(56) %3)
  %5 = icmp eq i32 %4, 5
  ret i1 %5
}

; Function Attrs: mustprogress nounwind uwtable
define linkonce_odr hidden noundef nonnull align 8 dereferenceable(56) ptr @_ZNK4llvm15MCSubtargetInfo15getTargetTripleEv(ptr noundef nonnull align 8 dereferenceable(288) %0) #0 comdat align 2 {
  %2 = alloca ptr, align 8
  store ptr %0, ptr %2, align 8
  %3 = load ptr, ptr %2, align 8
  %4 = getelementptr inbounds nuw %"class.llvm::MCSubtargetInfo", ptr %3, i32 0, i32 1
  ret ptr %4
}

; Function Attrs: mustprogress nounwind uwtable
define dso_local noundef ptr @_ZN4llvm25createAArch64leAsmBackendERKNS_6TargetERKNS_15MCSubtargetInfoERKNS_14MCRegisterInfoERKNS_15MCTargetOptionsE(ptr noundef nonnull align 8 dereferenceable(248) %0, ptr noundef nonnull align 8 dereferenceable(288) %1, ptr noundef nonnull align 8 dereferenceable(224) %2, ptr noundef nonnull align 8 dereferenceable(201) %3) #0 {
  %5 = alloca ptr, align 8
  %6 = alloca ptr, align 8
  %7 = alloca ptr, align 8
  %8 = alloca ptr, align 8
  %9 = alloca ptr, align 8
  %10 = alloca ptr, align 8
  %11 = alloca i8, align 1
  %12 = alloca i8, align 1
  store ptr %0, ptr %6, align 8
  store ptr %1, ptr %7, align 8
  store ptr %2, ptr %8, align 8
  store ptr %3, ptr %9, align 8
  %13 = load ptr, ptr %7, align 8
  %14 = call noundef nonnull align 8 dereferenceable(56) ptr @_ZNK4llvm15MCSubtargetInfo15getTargetTripleEv(ptr noundef nonnull align 8 dereferenceable(288) %13)
  store ptr %14, ptr %10, align 8
  %15 = load ptr, ptr %10, align 8
  %16 = call noundef zeroext i1 @_ZNK4llvm6Triple18isOSBinFormatMachOEv(ptr noundef nonnull align 8 dereferenceable(56) %15)
  br i1 %16, label %17, label %22

17:                                               ; preds = %4
  %18 = call noalias noundef nonnull ptr @_Znwm(i64 noundef 80) #9
  %19 = load ptr, ptr %6, align 8
  %20 = load ptr, ptr %10, align 8
  %21 = load ptr, ptr %8, align 8
  call void @_ZN12_GLOBAL__N_123DarwinAArch64AsmBackendC2ERKN4llvm6TargetERKNS1_6TripleERKNS1_14MCRegisterInfoE(ptr noundef nonnull align 8 dereferenceable(80) %18, ptr noundef nonnull align 8 dereferenceable(248) %19, ptr noundef nonnull align 8 dereferenceable(56) %20, ptr noundef nonnull align 8 dereferenceable(224) %21)
  store ptr %18, ptr %5, align 8
  br label %44

22:                                               ; preds = %4
  %23 = load ptr, ptr %10, align 8
  %24 = call noundef zeroext i1 @_ZNK4llvm6Triple17isOSBinFormatCOFFEv(ptr noundef nonnull align 8 dereferenceable(56) %23)
  br i1 %24, label %25, label %29

25:                                               ; preds = %22
  %26 = call noalias noundef nonnull ptr @_Znwm(i64 noundef 72) #9
  %27 = load ptr, ptr %6, align 8
  %28 = load ptr, ptr %10, align 8
  call void @_ZN12_GLOBAL__N_121COFFAArch64AsmBackendC2ERKN4llvm6TargetERKNS1_6TripleE(ptr noundef nonnull align 8 dereferenceable(72) %26, ptr noundef nonnull align 8 dereferenceable(248) %27, ptr noundef nonnull align 8 dereferenceable(56) %28)
  store ptr %26, ptr %5, align 8
  br label %44

29:                                               ; preds = %22
  %30 = load ptr, ptr %10, align 8
  %31 = call noundef i32 @_ZNK4llvm6Triple5getOSEv(ptr noundef nonnull align 8 dereferenceable(56) %30)
  %32 = call noundef zeroext i8 @_ZN4llvm23MCELFObjectTargetWriter8getOSABIENS_6Triple6OSTypeE(i32 noundef %31)
  store i8 %32, ptr %11, align 1
  %33 = load ptr, ptr %7, align 8
  %34 = call noundef nonnull align 8 dereferenceable(56) ptr @_ZNK4llvm15MCSubtargetInfo15getTargetTripleEv(ptr noundef nonnull align 8 dereferenceable(288) %33)
  %35 = call noundef i32 @_ZNK4llvm6Triple14getEnvironmentEv(ptr noundef nonnull align 8 dereferenceable(56) %34)
  %36 = icmp eq i32 %35, 10
  %37 = zext i1 %36 to i8
  store i8 %37, ptr %12, align 1
  %38 = call noalias noundef nonnull ptr @_Znwm(i64 noundef 80) #9
  %39 = load ptr, ptr %6, align 8
  %40 = load ptr, ptr %10, align 8
  %41 = load i8, ptr %11, align 1
  %42 = load i8, ptr %12, align 1
  %43 = trunc i8 %42 to i1
  call void @_ZN12_GLOBAL__N_120ELFAArch64AsmBackendC2ERKN4llvm6TargetERKNS1_6TripleEhbb(ptr noundef nonnull align 8 dereferenceable(74) %38, ptr noundef nonnull align 8 dereferenceable(248) %39, ptr noundef nonnull align 8 dereferenceable(56) %40, i8 noundef zeroext %41, i1 noundef zeroext true, i1 noundef zeroext %43)
  store ptr %38, ptr %5, align 8
  br label %44

44:                                               ; preds = %29, %25, %17
  %45 = load ptr, ptr %5, align 8
  ret ptr %45
}