; Function Attrs: mustprogress nounwind uwtable
define dso_local noundef nonnull ptr @_ZN4llvm25createAArch64leAsmBackendERKNS_6TargetERKNS_15MCSubtargetInfoERKNS_14MCRegisterInfoERKNS_15MCTargetOptionsE(ptr nocapture noundef nonnull readnone align 8 dereferenceable(248) %0, ptr noundef nonnull align 8 dereferenceable(288) %1, ptr noundef nonnull align 8 dereferenceable(224) %2, ptr nocapture noundef nonnull readnone align 8 dereferenceable(201) %3) local_unnamed_addr #0 {
  %5 = getelementptr inbounds nuw i8, ptr %1, i64 8
  %6 = getelementptr inbounds i8, ptr %1, i64 60
  %7 = load i32, ptr %6, align 4
  switch i32 %7, label %19 [
    i32 5, label %8
    i32 1, label %14
  ]

8:                                                ; preds = %4
  %9 = tail call noalias noundef nonnull dereferenceable(80) ptr @_Znwm(i64 noundef 80) #16
  tail call void @_ZN4llvm12MCAsmBackendC2ENS_10endiannessEj(ptr noundef nonnull align 8 dereferenceable(16) %9, i32 noundef 1, i32 noundef 1320) #17
  store ptr getelementptr inbounds inrange(-16, 232) (i8, ptr @_ZTVN12_GLOBAL__N_117AArch64AsmBackendE, i64 16), ptr %9, align 8
  %10 = getelementptr inbounds nuw i8, ptr %9, i64 16
  tail call void @_ZNSt7__cxx1112basic_stringIcSt11char_traitsIcESaIcEEC1ERKS4_(ptr noundef nonnull align 8 dereferenceable(32) %10, ptr noundef nonnull align 8 dereferenceable(32) %5) #17
  %11 = getelementptr inbounds i8, ptr %9, i64 48
  %12 = getelementptr inbounds i8, ptr %1, i64 40
  tail call void @llvm.memcpy.p0.p0.i64(ptr noundef nonnull align 8 dereferenceable(24) %11, ptr noundef nonnull align 8 dereferenceable(24) %12, i64 24, i1 false)
  store ptr getelementptr inbounds inrange(-16, 232) (i8, ptr @_ZTVN12_GLOBAL__N_123DarwinAArch64AsmBackendE, i64 16), ptr %9, align 8
  %13 = getelementptr inbounds nuw i8, ptr %9, i64 72
  store ptr %2, ptr %13, align 8
  br label %36

14:                                               ; preds = %4
  %15 = tail call noalias noundef nonnull dereferenceable(72) ptr @_Znwm(i64 noundef 72) #16
  tail call void @_ZN4llvm12MCAsmBackendC2ENS_10endiannessEj(ptr noundef nonnull align 8 dereferenceable(16) %15, i32 noundef 1, i32 noundef 1320) #17
  store ptr getelementptr inbounds inrange(-16, 232) (i8, ptr @_ZTVN12_GLOBAL__N_117AArch64AsmBackendE, i64 16), ptr %15, align 8
  %16 = getelementptr inbounds nuw i8, ptr %15, i64 16
  tail call void @_ZNSt7__cxx1112basic_stringIcSt11char_traitsIcESaIcEEC1ERKS4_(ptr noundef nonnull align 8 dereferenceable(32) %16, ptr noundef nonnull align 8 dereferenceable(32) %5) #17
  %17 = getelementptr inbounds i8, ptr %15, i64 48
  %18 = getelementptr inbounds i8, ptr %1, i64 40
  tail call void @llvm.memcpy.p0.p0.i64(ptr noundef nonnull align 8 dereferenceable(24) %17, ptr noundef nonnull align 8 dereferenceable(24) %18, i64 24, i1 false)
  store ptr getelementptr inbounds inrange(-16, 232) (i8, ptr @_ZTVN12_GLOBAL__N_121COFFAArch64AsmBackendE, i64 16), ptr %15, align 8
  br label %36

19:                                               ; preds = %4
  %20 = getelementptr inbounds i8, ptr %1, i64 52
  %21 = load i32, ptr %20, align 4
  switch i32 %21, label %25 [
    i32 33, label %_ZN4llvm23MCELFObjectTargetWriter8getOSABIENS_6Triple6OSTypeE.exit
    i32 23, label %22
    i32 3, label %22
    i32 12, label %23
    i32 11, label %24
  ]

22:                                               ; preds = %19, %19
  br label %_ZN4llvm23MCELFObjectTargetWriter8getOSABIENS_6Triple6OSTypeE.exit

23:                                               ; preds = %19
  br label %_ZN4llvm23MCELFObjectTargetWriter8getOSABIENS_6Triple6OSTypeE.exit

24:                                               ; preds = %19
  br label %_ZN4llvm23MCELFObjectTargetWriter8getOSABIENS_6Triple6OSTypeE.exit

25:                                               ; preds = %19
  br label %_ZN4llvm23MCELFObjectTargetWriter8getOSABIENS_6Triple6OSTypeE.exit

_ZN4llvm23MCELFObjectTargetWriter8getOSABIENS_6Triple6OSTypeE.exit: ; preds = %19, %22, %23, %24, %25
  %.0.i = phi i8 [ 0, %25 ], [ 12, %24 ], [ 6, %23 ], [ 9, %22 ], [ -1, %19 ]
  %26 = getelementptr inbounds i8, ptr %1, i64 56
  %27 = load i32, ptr %26, align 8
  %28 = icmp eq i32 %27, 10
  %29 = tail call noalias noundef nonnull dereferenceable(80) ptr @_Znwm(i64 noundef 80) #16
  %30 = zext i1 %28 to i8
  tail call void @_ZN4llvm12MCAsmBackendC2ENS_10endiannessEj(ptr noundef nonnull align 8 dereferenceable(16) %29, i32 noundef 1, i32 noundef 1320) #17
  store ptr getelementptr inbounds inrange(-16, 232) (i8, ptr @_ZTVN12_GLOBAL__N_117AArch64AsmBackendE, i64 16), ptr %29, align 8
  %31 = getelementptr inbounds nuw i8, ptr %29, i64 16
  tail call void @_ZNSt7__cxx1112basic_stringIcSt11char_traitsIcESaIcEEC1ERKS4_(ptr noundef nonnull align 8 dereferenceable(32) %31, ptr noundef nonnull align 8 dereferenceable(32) %5) #17
  %32 = getelementptr inbounds i8, ptr %29, i64 48
  %33 = getelementptr inbounds i8, ptr %1, i64 40
  tail call void @llvm.memcpy.p0.p0.i64(ptr noundef nonnull align 8 dereferenceable(24) %32, ptr noundef nonnull align 8 dereferenceable(24) %33, i64 24, i1 false)
  store ptr getelementptr inbounds inrange(-16, 232) (i8, ptr @_ZTVN12_GLOBAL__N_120ELFAArch64AsmBackendE, i64 16), ptr %29, align 8
  %34 = getelementptr inbounds nuw i8, ptr %29, i64 72
  store i8 %.0.i, ptr %34, align 8
  %35 = getelementptr inbounds nuw i8, ptr %29, i64 73
  store i8 %30, ptr %35, align 1
  br label %36

36:                                               ; preds = %_ZN4llvm23MCELFObjectTargetWriter8getOSABIENS_6Triple6OSTypeE.exit, %14, %8
  %.0 = phi ptr [ %9, %8 ], [ %15, %14 ], [ %29, %_ZN4llvm23MCELFObjectTargetWriter8getOSABIENS_6Triple6OSTypeE.exit ]
  ret ptr %.0
}